target datalayout = "e-m:e-p270:32:32-p271:32:32-p272:64:64-i64:64-i128:128-f80:128-n8:16:32:64-S128"
target triple = "x86_64-pc-linux-gnu"

%struct.gres_state = type { i32, i32, ptr, ptr, i32 }
%struct.slurm_gres_context = type { ptr, i32, ptr, ptr, i32, ptr, ptr, %struct.slurm_gres_ops, i32, ptr, i64 }
%struct.slurm_gres_ops = type { ptr, ptr, ptr, ptr, ptr, ptr, ptr, ptr, ptr, ptr, ptr }
%struct.gres_prep_t = type { i32, i32, ptr, ptr, ptr }
%struct.foreach_prep_build_env_t = type { ptr, ptr }

@gres_context_cnt = internal global i32 -1, align 4
@gres_context = internal global ptr null, align 8
@.str.287 = private unnamed_addr constant [56 x i8] c"%s: gres not found in context. This should never happen\00", align 1
@__func__._foreach_prep_build_env = private unnamed_addr constant [24 x i8] c"_foreach_prep_build_env\00", align 1

; Function Attrs: nounwind uwtable
define internal ptr @_find_context_by_id(i32 noundef %0) #0 {
  %2 = alloca ptr, align 8
  %3 = alloca i32, align 4
  %4 = alloca i32, align 4
  %5 = alloca i32, align 4
  store i32 %0, ptr %3, align 4
  call void @llvm.lifetime.start.p0(i64 4, ptr %4) #11
  store i32 0, ptr %4, align 4
  br label %6

6:                                                ; preds = %26, %1
  %7 = load i32, ptr %4, align 4
  %8 = load i32, ptr @gres_context_cnt, align 4
  %9 = icmp slt i32 %7, %8
  br i1 %9, label %11, label %10

10:                                               ; preds = %6
  store i32 2, ptr %5, align 4
  br label %29

11:                                               ; preds = %6
  %12 = load ptr, ptr @gres_context, align 8
  %13 = load i32, ptr %4, align 4
  %14 = sext i32 %13 to i64
  %15 = getelementptr inbounds %struct.slurm_gres_context, ptr %12, i64 %14
  %16 = getelementptr inbounds nuw %struct.slurm_gres_context, ptr %15, i32 0, i32 8
  %17 = load i32, ptr %16, align 8
  %18 = load i32, ptr %3, align 4
  %19 = icmp eq i32 %17, %18
  br i1 %19, label %20, label %25

20:                                               ; preds = %11
  %21 = load ptr, ptr @gres_context, align 8
  %22 = load i32, ptr %4, align 4
  %23 = sext i32 %22 to i64
  %24 = getelementptr inbounds %struct.slurm_gres_context, ptr %21, i64 %23
  store ptr %24, ptr %2, align 8
  store i32 1, ptr %5, align 4
  br label %29

25:                                               ; preds = %11
  br label %26

26:                                               ; preds = %25
  %27 = load i32, ptr %4, align 4
  %28 = add nsw i32 %27, 1
  store i32 %28, ptr %4, align 4
  br label %6, !llvm.loop !41

29:                                               ; preds = %20, %10
  call void @llvm.lifetime.end.p0(i64 4, ptr %4) #11
  %30 = load i32, ptr %5, align 4
  switch i32 %30, label %34 [
    i32 2, label %31
    i32 1, label %32
  ]

31:                                               ; preds = %29
  store ptr null, ptr %2, align 8
  br label %32

32:                                               ; preds = %31, %29
  %33 = load ptr, ptr %2, align 8
  ret ptr %33

34:                                               ; preds = %29
  unreachable
}

; Function Attrs: nounwind uwtable
define internal i32 @_foreach_prep_build_env(ptr noundef %0, ptr noundef %1) #0 {
  %3 = alloca i32, align 4
  %4 = alloca ptr, align 8
  %5 = alloca ptr, align 8
  %6 = alloca ptr, align 8
  %7 = alloca ptr, align 8
  %8 = alloca ptr, align 8
  %9 = alloca ptr, align 8
  %10 = alloca i32, align 4
  store ptr %0, ptr %4, align 8
  store ptr %1, ptr %5, align 8
  call void @llvm.lifetime.start.p0(i64 8, ptr %6) #11
  %11 = load ptr, ptr %4, align 8
  store ptr %11, ptr %6, align 8
  call void @llvm.lifetime.start.p0(i64 8, ptr %7) #11
  %12 = load ptr, ptr %5, align 8
  store ptr %12, ptr %7, align 8
  call void @llvm.lifetime.start.p0(i64 8, ptr %8) #11
  call void @llvm.lifetime.start.p0(i64 8, ptr %9) #11
  %13 = load ptr, ptr %6, align 8
  %14 = getelementptr inbounds nuw %struct.gres_state, ptr %13, i32 0, i32 1
  %15 = load i32, ptr %14, align 4
  %16 = call ptr @_find_context_by_id(i32 noundef %15)
  store ptr %16, ptr %8, align 8
  %17 = icmp ne ptr %16, null
  br i1 %17, label %20, label %18

18:                                               ; preds = %2
  %19 = call i32 (ptr, ...) @error(ptr noundef @.str.287, ptr noundef @__func__._foreach_prep_build_env)
  store i32 0, ptr %3, align 4
  store i32 1, ptr %10, align 4
  br label %64

20:                                               ; preds = %2
  %21 = load ptr, ptr %8, align 8
  %22 = getelementptr inbounds nuw %struct.slurm_gres_context, ptr %21, i32 0, i32 7
  %23 = getelementptr inbounds nuw %struct.slurm_gres_ops, ptr %22, i32 0, i32 9
  %24 = load ptr, ptr %23, align 8
  %25 = icmp ne ptr %24, null
  br i1 %25, label %27, label %26

26:                                               ; preds = %20
  store i32 0, ptr %3, align 4
  store i32 1, ptr %10, align 4
  br label %64

27:                                               ; preds = %20
  %28 = load ptr, ptr %8, align 8
  %29 = getelementptr inbounds nuw %struct.slurm_gres_context, ptr %28, i32 0, i32 7
  %30 = getelementptr inbounds nuw %struct.slurm_gres_ops, ptr %29, i32 0, i32 9
  %31 = load ptr, ptr %30, align 8
  %32 = load ptr, ptr %6, align 8
  %33 = getelementptr inbounds nuw %struct.gres_state, ptr %32, i32 0, i32 2
  %34 = load ptr, ptr %33, align 8
  %35 = call ptr %31(ptr noundef %34)
  store ptr %35, ptr %9, align 8
  %36 = load ptr, ptr %9, align 8
  %37 = icmp ne ptr %36, null
  br i1 %37, label %39, label %38

38:                                               ; preds = %27
  store i32 0, ptr %3, align 4
  store i32 1, ptr %10, align 4
  br label %64

39:                                               ; preds = %27
  %40 = load ptr, ptr %7, align 8
  %41 = getelementptr inbounds nuw %struct.foreach_prep_build_env_t, ptr %40, i32 0, i32 1
  %42 = load ptr, ptr %41, align 8
  %43 = icmp ne ptr %42, null
  br i1 %43, label %48, label %44

44:                                               ; preds = %39
  %45 = call ptr @list_create(ptr noundef @_prep_list_del)
  %46 = load ptr, ptr %7, align 8
  %47 = getelementptr inbounds nuw %struct.foreach_prep_build_env_t, ptr %46, i32 0, i32 1
  store ptr %45, ptr %47, align 8
  br label %48

48:                                               ; preds = %44, %39
  %49 = load ptr, ptr %8, align 8
  %50 = getelementptr inbounds nuw %struct.slurm_gres_context, ptr %49, i32 0, i32 8
  %51 = load i32, ptr %50, align 8
  %52 = load ptr, ptr %9, align 8
  %53 = getelementptr inbounds nuw %struct.gres_prep_t, ptr %52, i32 0, i32 0
  store i32 %51, ptr %53, align 8
  %54 = load ptr, ptr %7, align 8
  %55 = getelementptr inbounds nuw %struct.foreach_prep_build_env_t, ptr %54, i32 0, i32 0
  %56 = load ptr, ptr %55, align 8
  %57 = call ptr @xstrdup(ptr noundef %56)
  %58 = load ptr, ptr %9, align 8
  %59 = getelementptr inbounds nuw %struct.gres_prep_t, ptr %58, i32 0, i32 2
  store ptr %57, ptr %59, align 8
  %60 = load ptr, ptr %7, align 8
  %61 = getelementptr inbounds nuw %struct.foreach_prep_build_env_t, ptr %60, i32 0, i32 1
  %62 = load ptr, ptr %61, align 8
  %63 = load ptr, ptr %9, align 8
  call void @list_append(ptr noundef %62, ptr noundef %63)
  store i32 0, ptr %3, align 4
  store i32 1, ptr %10, align 4
  br label %64

64:                                               ; preds = %48, %38, %26, %18
  call void @llvm.lifetime.end.p0(i64 8, ptr %9) #11
  call void @llvm.lifetime.end.p0(i64 8, ptr %8) #11
  call void @llvm.lifetime.end.p0(i64 8, ptr %7) #11
  call void @llvm.lifetime.end.p0(i64 8, ptr %6) #11
  %65 = load i32, ptr %3, align 4
  ret i32 %65
}