; Function Attrs: nounwind uwtable
define internal noundef i32 @_foreach_prep_build_env(ptr noundef readonly captures(none) %0, ptr noundef captures(none) %1) #2 {
  %3 = getelementptr inbounds nuw i8, ptr %0, i64 4
  %4 = load i32, ptr %3, align 4
  %5 = load i32, ptr @gres_context_cnt, align 4
  %.not8.i = icmp sgt i32 %5, 0
  br i1 %.not8.i, label %.lr.ph.i, label %.loopexit

.lr.ph.i:                                         ; preds = %2
  %6 = load ptr, ptr @gres_context, align 8
  %wide.trip.count.i = zext nneg i32 %5 to i64
  br label %8

7:                                                ; preds = %8
  %indvars.iv.next.i = add nuw nsw i64 %indvars.iv.i, 1
  %exitcond.not.i = icmp eq i64 %indvars.iv.next.i, %wide.trip.count.i
  br i1 %exitcond.not.i, label %.loopexit, label %8, !llvm.loop !41

8:                                                ; preds = %7, %.lr.ph.i
  %indvars.iv.i = phi i64 [ 0, %.lr.ph.i ], [ %indvars.iv.next.i, %7 ]
  %9 = getelementptr inbounds nuw %struct.slurm_gres_context, ptr %6, i64 %indvars.iv.i
  %10 = getelementptr inbounds nuw i8, ptr %9, i64 144
  %11 = load i32, ptr %10, align 8
  %12 = icmp eq i32 %11, %4
  br i1 %12, label %_find_context_by_id.exit, label %7

.loopexit:                                        ; preds = %7, %2
  %13 = tail call i32 (ptr, ...) @error(ptr noundef nonnull @.str.287, ptr noundef nonnull @__func__._foreach_prep_build_env) #28
  br label %32

_find_context_by_id.exit:                         ; preds = %8
  %14 = getelementptr inbounds nuw i8, ptr %9, i64 144
  %15 = getelementptr inbounds nuw i8, ptr %9, i64 128
  %16 = load ptr, ptr %15, align 8
  %.not17 = icmp eq ptr %16, null
  br i1 %.not17, label %32, label %17

17:                                               ; preds = %_find_context_by_id.exit
  %18 = getelementptr inbounds nuw i8, ptr %0, i64 8
  %19 = load ptr, ptr %18, align 8
  %20 = tail call ptr %16(ptr noundef %19) #28
  %.not18 = icmp eq ptr %20, null
  br i1 %.not18, label %32, label %21

21:                                               ; preds = %17
  %22 = getelementptr inbounds nuw i8, ptr %1, i64 8
  %23 = load ptr, ptr %22, align 8
  %.not19 = icmp eq ptr %23, null
  br i1 %.not19, label %24, label %26

24:                                               ; preds = %21
  %25 = tail call ptr @list_create(ptr noundef nonnull @_prep_list_del) #28
  store ptr %25, ptr %22, align 8
  br label %26

26:                                               ; preds = %24, %21
  %27 = load i32, ptr %14, align 8
  store i32 %27, ptr %20, align 8
  %28 = load ptr, ptr %1, align 8
  %29 = tail call ptr @xstrdup(ptr noundef %28) #28
  %30 = getelementptr inbounds nuw i8, ptr %20, i64 8
  store ptr %29, ptr %30, align 8
  %31 = load ptr, ptr %22, align 8
  tail call void @list_append(ptr noundef %31, ptr noundef nonnull %20) #28
  br label %32

32:                                               ; preds = %17, %_find_context_by_id.exit, %26, %.loopexit
  ret i32 0
}